target datalayout = "e-m:e-p270:32:32-p271:32:32-p272:64:64-i64:64-i128:128-f80:128-n8:16:32:64-S128"
target triple = "x86_64-pc-linux-gnu"

%struct.mbedtls_mpi = type { ptr, i16, i16 }

; Function Attrs: nounwind uwtable
define hidden i32 @mbedtls_mpi_grow(ptr noundef %0, i64 noundef %1) #0 {
  %3 = alloca i32, align 4
  %4 = alloca ptr, align 8
  %5 = alloca i64, align 8
  %6 = alloca ptr, align 8
  %7 = alloca i32, align 4
  store ptr %0, ptr %4, align 8, !tbaa !3
  store i64 %1, ptr %5, align 8, !tbaa !15
  call void @llvm.lifetime.start.p0(i64 8, ptr %6) #9
  %8 = load i64, ptr %5, align 8, !tbaa !15
  %9 = icmp ugt i64 %8, 10000
  br i1 %9, label %10, label %11

10:                                               ; preds = %2
  store i32 -16, ptr %3, align 4
  store i32 1, ptr %7, align 4
  br label %55

11:                                               ; preds = %2
  %12 = load ptr, ptr %4, align 8, !tbaa !3
  %13 = getelementptr inbounds nuw %struct.mbedtls_mpi, ptr %12, i32 0, i32 2
  %14 = load i16, ptr %13, align 2, !tbaa !10
  %15 = zext i16 %14 to i64
  %16 = load i64, ptr %5, align 8, !tbaa !15
  %17 = icmp ult i64 %15, %16
  br i1 %17, label %18, label %54

18:                                               ; preds = %11
  %19 = load i64, ptr %5, align 8, !tbaa !15
  %20 = call noalias ptr @calloc(i64 noundef %19, i64 noundef 8) #10
  store ptr %20, ptr %6, align 8, !tbaa !25
  %21 = icmp eq ptr %20, null
  br i1 %21, label %22, label %23

22:                                               ; preds = %18
  store i32 -16, ptr %3, align 4
  store i32 1, ptr %7, align 4
  br label %55

23:                                               ; preds = %18
  %24 = load ptr, ptr %4, align 8, !tbaa !3
  %25 = getelementptr inbounds nuw %struct.mbedtls_mpi, ptr %24, i32 0, i32 0
  %26 = load ptr, ptr %25, align 8, !tbaa !17
  %27 = icmp ne ptr %26, null
  br i1 %27, label %28, label %46

28:                                               ; preds = %23
  %29 = load ptr, ptr %6, align 8, !tbaa !25
  %30 = load ptr, ptr %4, align 8, !tbaa !3
  %31 = getelementptr inbounds nuw %struct.mbedtls_mpi, ptr %30, i32 0, i32 0
  %32 = load ptr, ptr %31, align 8, !tbaa !17
  %33 = load ptr, ptr %4, align 8, !tbaa !3
  %34 = getelementptr inbounds nuw %struct.mbedtls_mpi, ptr %33, i32 0, i32 2
  %35 = load i16, ptr %34, align 2, !tbaa !10
  %36 = zext i16 %35 to i64
  %37 = mul i64 %36, 8
  call void @llvm.memcpy.p0.p0.i64(ptr align 8 %29, ptr align 8 %32, i64 %37, i1 false)
  %38 = load ptr, ptr %4, align 8, !tbaa !3
  %39 = getelementptr inbounds nuw %struct.mbedtls_mpi, ptr %38, i32 0, i32 0
  %40 = load ptr, ptr %39, align 8, !tbaa !17
  %41 = load ptr, ptr %4, align 8, !tbaa !3
  %42 = getelementptr inbounds nuw %struct.mbedtls_mpi, ptr %41, i32 0, i32 2
  %43 = load i16, ptr %42, align 2, !tbaa !10
  %44 = zext i16 %43 to i64
  %45 = mul i64 8, %44
  call void @mbedtls_zeroize_and_free(ptr noundef %40, i64 noundef %45)
  br label %46

46:                                               ; preds = %28, %23
  %47 = load i64, ptr %5, align 8, !tbaa !15
  %48 = trunc i64 %47 to i16
  %49 = load ptr, ptr %4, align 8, !tbaa !3
  %50 = getelementptr inbounds nuw %struct.mbedtls_mpi, ptr %49, i32 0, i32 2
  store i16 %48, ptr %50, align 2, !tbaa !10
  %51 = load ptr, ptr %6, align 8, !tbaa !25
  %52 = load ptr, ptr %4, align 8, !tbaa !3
  %53 = getelementptr inbounds nuw %struct.mbedtls_mpi, ptr %52, i32 0, i32 0
  store ptr %51, ptr %53, align 8, !tbaa !17
  br label %54

54:                                               ; preds = %46, %11
  store i32 0, ptr %3, align 4
  store i32 1, ptr %7, align 4
  br label %55

55:                                               ; preds = %54, %22, %10
  call void @llvm.lifetime.end.p0(i64 8, ptr %6) #9
  %56 = load i32, ptr %3, align 4
  ret i32 %56
}

; Function Attrs: nounwind uwtable
define hidden i32 @mbedtls_mpi_set_bit(ptr noundef %0, i64 noundef %1, i8 noundef zeroext %2) #0 {
  %4 = alloca i32, align 4
  %5 = alloca ptr, align 8
  %6 = alloca i64, align 8
  %7 = alloca i8, align 1
  %8 = alloca i32, align 4
  %9 = alloca i64, align 8
  %10 = alloca i64, align 8
  %11 = alloca i32, align 4
  store ptr %0, ptr %5, align 8, !tbaa !3
  store i64 %1, ptr %6, align 8, !tbaa !15
  store i8 %2, ptr %7, align 1, !tbaa !22
  call void @llvm.lifetime.start.p0(i64 4, ptr %8) #9
  store i32 0, ptr %8, align 4, !tbaa !19
  call void @llvm.lifetime.start.p0(i64 8, ptr %9) #9
  %12 = load i64, ptr %6, align 8, !tbaa !15
  %13 = udiv i64 %12, 64
  store i64 %13, ptr %9, align 8, !tbaa !15
  call void @llvm.lifetime.start.p0(i64 8, ptr %10) #9
  %14 = load i64, ptr %6, align 8, !tbaa !15
  %15 = urem i64 %14, 64
  store i64 %15, ptr %10, align 8, !tbaa !15
  %16 = load i8, ptr %7, align 1, !tbaa !22
  %17 = zext i8 %16 to i32
  %18 = icmp ne i32 %17, 0
  br i1 %18, label %19, label %24

19:                                               ; preds = %3
  %20 = load i8, ptr %7, align 1, !tbaa !22
  %21 = zext i8 %20 to i32
  %22 = icmp ne i32 %21, 1
  br i1 %22, label %23, label %24

23:                                               ; preds = %19
  store i32 -4, ptr %4, align 4
  store i32 1, ptr %11, align 4
  br label %72

24:                                               ; preds = %19, %3
  %25 = load ptr, ptr %5, align 8, !tbaa !3
  %26 = getelementptr inbounds nuw %struct.mbedtls_mpi, ptr %25, i32 0, i32 2
  %27 = load i16, ptr %26, align 2, !tbaa !10
  %28 = zext i16 %27 to i64
  %29 = mul i64 %28, 64
  %30 = load i64, ptr %6, align 8, !tbaa !15
  %31 = icmp ule i64 %29, %30
  br i1 %31, label %32, label %48

32:                                               ; preds = %24
  %33 = load i8, ptr %7, align 1, !tbaa !22
  %34 = zext i8 %33 to i32
  %35 = icmp eq i32 %34, 0
  br i1 %35, label %36, label %37

36:                                               ; preds = %32
  store i32 0, ptr %4, align 4
  store i32 1, ptr %11, align 4
  br label %72

37:                                               ; preds = %32
  br label %38

38:                                               ; preds = %37
  %39 = load ptr, ptr %5, align 8, !tbaa !3
  %40 = load i64, ptr %9, align 8, !tbaa !15
  %41 = add i64 %40, 1
  %42 = call i32 @mbedtls_mpi_grow(ptr noundef %39, i64 noundef %41)
  store i32 %42, ptr %8, align 4, !tbaa !19
  %43 = icmp ne i32 %42, 0
  br i1 %43, label %44, label %45

44:                                               ; preds = %38
  br label %70

45:                                               ; preds = %38
  br label %46

46:                                               ; preds = %45
  br label %47

47:                                               ; preds = %46
  br label %48

48:                                               ; preds = %47, %24
  %49 = load i64, ptr %10, align 8, !tbaa !15
  %50 = shl i64 1, %49
  %51 = xor i64 %50, -1
  %52 = load ptr, ptr %5, align 8, !tbaa !3
  %53 = getelementptr inbounds nuw %struct.mbedtls_mpi, ptr %52, i32 0, i32 0
  %54 = load ptr, ptr %53, align 8, !tbaa !17
  %55 = load i64, ptr %9, align 8, !tbaa !15
  %56 = getelementptr inbounds nuw i64, ptr %54, i64 %55
  %57 = load i64, ptr %56, align 8, !tbaa !15
  %58 = and i64 %57, %51
  store i64 %58, ptr %56, align 8, !tbaa !15
  %59 = load i8, ptr %7, align 1, !tbaa !22
  %60 = zext i8 %59 to i64
  %61 = load i64, ptr %10, align 8, !tbaa !15
  %62 = shl i64 %60, %61
  %63 = load ptr, ptr %5, align 8, !tbaa !3
  %64 = getelementptr inbounds nuw %struct.mbedtls_mpi, ptr %63, i32 0, i32 0
  %65 = load ptr, ptr %64, align 8, !tbaa !17
  %66 = load i64, ptr %9, align 8, !tbaa !15
  %67 = getelementptr inbounds nuw i64, ptr %65, i64 %66
  %68 = load i64, ptr %67, align 8, !tbaa !15
  %69 = or i64 %68, %62
  store i64 %69, ptr %67, align 8, !tbaa !15
  br label %70

70:                                               ; preds = %48, %44
  %71 = load i32, ptr %8, align 4, !tbaa !19
  store i32 %71, ptr %4, align 4
  store i32 1, ptr %11, align 4
  br label %72

72:                                               ; preds = %70, %36, %23
  call void @llvm.lifetime.end.p0(i64 8, ptr %10) #9
  call void @llvm.lifetime.end.p0(i64 8, ptr %9) #9
  call void @llvm.lifetime.end.p0(i64 4, ptr %8) #9
  %73 = load i32, ptr %4, align 4
  ret i32 %73
}