; Function Attrs: nounwind uwtable
define hidden range(i32 -16, 1) i32 @mbedtls_mpi_set_bit(ptr noundef captures(none) %0, i64 noundef %1, i8 noundef zeroext %2) local_unnamed_addr #0 {
  %4 = lshr i64 %1, 6
  %5 = and i64 %1, 63
  %or.cond = icmp ugt i8 %2, 1
  br i1 %or.cond, label %mbedtls_mpi_grow.exit, label %6

6:                                                ; preds = %3
  %7 = getelementptr inbounds nuw i8, ptr %0, i64 10
  %8 = load i16, ptr %7, align 2, !tbaa !3
  %9 = zext i16 %8 to i64
  %10 = shl nuw nsw i64 %9, 6
  %.not = icmp ugt i64 %10, %1
  br i1 %.not, label %mbedtls_mpi_grow.exit.thread, label %11

11:                                               ; preds = %6
  %12 = icmp eq i8 %2, 0
  br i1 %12, label %mbedtls_mpi_grow.exit, label %13

13:                                               ; preds = %11
  %14 = add nuw nsw i64 %4, 1
  %15 = icmp ugt i64 %1, 639999
  br i1 %15, label %mbedtls_mpi_grow.exit, label %16

16:                                               ; preds = %13
  %.not25 = icmp samesign ult i64 %4, %9
  br i1 %.not25, label %mbedtls_mpi_grow.exit.thread, label %17

17:                                               ; preds = %16
  %18 = tail call noalias ptr @calloc(i64 noundef %14, i64 noundef 8) #17
  %19 = icmp eq ptr %18, null
  br i1 %19, label %mbedtls_mpi_grow.exit, label %20

20:                                               ; preds = %17
  %21 = load ptr, ptr %0, align 8, !tbaa !12
  %.not.i = icmp eq ptr %21, null
  br i1 %.not.i, label %24, label %22

22:                                               ; preds = %20
  %23 = shl nuw nsw i64 %9, 3
  tail call void @llvm.memcpy.p0.p0.i64(ptr nonnull align 8 %18, ptr nonnull align 8 %21, i64 %23, i1 false)
  tail call void @mbedtls_zeroize_and_free(ptr noundef nonnull %21, i64 noundef %23) #16
  br label %24

24:                                               ; preds = %22, %20
  %25 = trunc nuw nsw i64 %14 to i16
  store i16 %25, ptr %7, align 2, !tbaa !3
  store ptr %18, ptr %0, align 8, !tbaa !12
  br label %mbedtls_mpi_grow.exit.thread

mbedtls_mpi_grow.exit.thread:                     ; preds = %16, %24, %6
  %26 = shl nuw i64 1, %5
  %27 = xor i64 %26, -1
  %28 = load ptr, ptr %0, align 8, !tbaa !12
  %29 = getelementptr inbounds nuw i64, ptr %28, i64 %4
  %30 = load i64, ptr %29, align 8, !tbaa !17
  %31 = and i64 %30, %27
  %32 = zext nneg i8 %2 to i64
  %33 = shl nuw i64 %32, %5
  %34 = or i64 %31, %33
  store i64 %34, ptr %29, align 8, !tbaa !17
  br label %mbedtls_mpi_grow.exit

mbedtls_mpi_grow.exit:                            ; preds = %17, %13, %mbedtls_mpi_grow.exit.thread, %11, %3
  %.0 = phi i32 [ -4, %3 ], [ 0, %11 ], [ 0, %mbedtls_mpi_grow.exit.thread ], [ -16, %13 ], [ -16, %17 ]
  ret i32 %.0
}